; Function Attrs: nounwind uwtable
define ptr @l_Lean_Meta_visitLet_visit___rarg___lambda__2___boxed(ptr noundef %0, ptr noundef %1, ptr noundef %2, ptr noundef %3, ptr noundef %4, ptr noundef %5, ptr noundef %6, ptr noundef %7, ptr noundef %8) #0 {
  %10 = tail call ptr @l_Lean_Meta_visitLet_visit___rarg___lambda__2(ptr noundef %0, ptr noundef %1, ptr noundef %2, ptr noundef %3, ptr noundef %4, ptr noundef %5, ptr noundef %6, ptr noundef %7, ptr poison)
  %11 = ptrtoint ptr %8 to i64
  %12 = and i64 %11, 1
  %.not = icmp eq i64 %12, 0
  br i1 %.not, label %13, label %lean_dec.exit

13:                                               ; preds = %9
  %14 = load i32, ptr %8, align 4, !tbaa !4
  %15 = icmp sgt i32 %14, 1
  br i1 %15, label %16, label %18, !prof !13

16:                                               ; preds = %13
  %17 = add nsw i32 %14, -1
  store i32 %17, ptr %8, align 4, !tbaa !4
  br label %lean_dec.exit

18:                                               ; preds = %13
  %.not.i = icmp eq i32 %14, 0
  br i1 %.not.i, label %lean_dec.exit, label %19

19:                                               ; preds = %18
  tail call void @lean_dec_ref_cold(ptr noundef nonnull %8) #4
  br label %lean_dec.exit

lean_dec.exit:                                    ; preds = %19, %18, %16, %9
  ret ptr %10
}